; Function Attrs: mustprogress uwtable
define hidden noundef ptr @_ZN21pb2bv_model_converter9translateER15ast_translation(ptr noundef nonnull readonly align 8 captures(none) dereferenceable(48) %0, ptr noundef nonnull align 8 dereferenceable(84) %1) unnamed_addr #4 align 2 {
  %3 = getelementptr inbounds nuw i8, ptr %1, i64 8
  %4 = load ptr, ptr %3, align 8, !tbaa !158
  %5 = tail call noalias noundef ptr @_ZN6memory8allocateEm(i64 noundef 48)
  %6 = getelementptr inbounds nuw i8, ptr %5, i64 8
  store i32 0, ptr %6, align 8, !tbaa !3
  %7 = getelementptr inbounds nuw i8, ptr %5, i64 16
  store ptr null, ptr %7, align 8, !tbaa !8
  %8 = getelementptr inbounds nuw i8, ptr %5, i64 24
  store i8 1, ptr %8, align 8, !tbaa !13
  store ptr getelementptr inbounds nuw inrange(-16, 88) (i8, ptr @_ZTV21pb2bv_model_converter, i64 16), ptr %5, align 8, !tbaa !14
  %9 = getelementptr inbounds nuw i8, ptr %5, i64 32
  store ptr %4, ptr %9, align 8, !tbaa !16
  %10 = getelementptr inbounds nuw i8, ptr %5, i64 40
  store ptr null, ptr %10, align 8, !tbaa !18
  %11 = getelementptr inbounds nuw i8, ptr %0, i64 40
  %12 = load ptr, ptr %11, align 8, !tbaa !18
  %13 = icmp eq ptr %12, null
  br i1 %13, label %._crit_edge, label %_ZN6vectorISt4pairIP9func_declS2_ELb0EjE3endEv.exit

_ZN6vectorISt4pairIP9func_declS2_ELb0EjE3endEv.exit: ; preds = %2
  %14 = getelementptr inbounds i8, ptr %12, i64 -4
  %15 = load i32, ptr %14, align 4, !tbaa !39
  %16 = zext i32 %15 to i64
  %17 = getelementptr inbounds nuw %"struct.std::pair", ptr %12, i64 %16
  %.not25 = icmp eq i32 %15, 0
  br i1 %.not25, label %._crit_edge, label %.lr.ph

._crit_edge:                                      ; preds = %_ZN11ast_manager7inc_refEP3ast.exit21, %2, %_ZN6vectorISt4pairIP9func_declS2_ELb0EjE3endEv.exit
  ret ptr %5

.lr.ph:                                           ; preds = %_ZN6vectorISt4pairIP9func_declS2_ELb0EjE3endEv.exit, %_ZN11ast_manager7inc_refEP3ast.exit21
  %.026 = phi ptr [ %55, %_ZN11ast_manager7inc_refEP3ast.exit21 ], [ %12, %_ZN6vectorISt4pairIP9func_declS2_ELb0EjE3endEv.exit ]
  %18 = load ptr, ptr %.026, align 8, !tbaa !53
  %19 = load ptr, ptr %1, align 8, !tbaa !169
  %20 = load ptr, ptr %3, align 8, !tbaa !158
  %21 = icmp eq ptr %19, %20
  br i1 %21, label %_ZN15ast_translationclI9func_declEEPT_PKS2_.exit.thread, label %_ZN15ast_translationclI9func_declEEPT_PKS2_.exit

_ZN15ast_translationclI9func_declEEPT_PKS2_.exit.thread: ; preds = %.lr.ph
  %22 = getelementptr inbounds nuw i8, ptr %.026, i64 8
  %23 = load ptr, ptr %22, align 8, !tbaa !55
  br label %_ZN15ast_translationclI9func_declEEPT_PKS2_.exit19

_ZN15ast_translationclI9func_declEEPT_PKS2_.exit: ; preds = %.lr.ph
  %24 = tail call noundef ptr @_ZN15ast_translation7processEPK3ast(ptr noundef nonnull align 8 dereferenceable(84) %1, ptr noundef %18)
  %.pre = load ptr, ptr %1, align 8, !tbaa !169
  %.pre27 = load ptr, ptr %3, align 8, !tbaa !158
  %25 = getelementptr inbounds nuw i8, ptr %.026, i64 8
  %26 = load ptr, ptr %25, align 8, !tbaa !55
  %27 = icmp eq ptr %.pre, %.pre27
  br i1 %27, label %_ZN15ast_translationclI9func_declEEPT_PKS2_.exit19, label %28

28:                                               ; preds = %_ZN15ast_translationclI9func_declEEPT_PKS2_.exit
  %29 = tail call noundef ptr @_ZN15ast_translation7processEPK3ast(ptr noundef nonnull align 8 dereferenceable(84) %1, ptr noundef %26)
  br label %_ZN15ast_translationclI9func_declEEPT_PKS2_.exit19

_ZN15ast_translationclI9func_declEEPT_PKS2_.exit19: ; preds = %_ZN15ast_translationclI9func_declEEPT_PKS2_.exit.thread, %_ZN15ast_translationclI9func_declEEPT_PKS2_.exit, %28
  %.0.i.i1731 = phi ptr [ %24, %28 ], [ %24, %_ZN15ast_translationclI9func_declEEPT_PKS2_.exit ], [ %18, %_ZN15ast_translationclI9func_declEEPT_PKS2_.exit.thread ]
  %.0.i.i18 = phi ptr [ %29, %28 ], [ %26, %_ZN15ast_translationclI9func_declEEPT_PKS2_.exit ], [ %23, %_ZN15ast_translationclI9func_declEEPT_PKS2_.exit.thread ]
  %30 = load ptr, ptr %10, align 8, !tbaa !18
  %31 = icmp eq ptr %30, null
  br i1 %31, label %38, label %32

32:                                               ; preds = %_ZN15ast_translationclI9func_declEEPT_PKS2_.exit19
  %33 = getelementptr inbounds i8, ptr %30, i64 -4
  %34 = load i32, ptr %33, align 4, !tbaa !39
  %35 = getelementptr inbounds i8, ptr %30, i64 -8
  %36 = load i32, ptr %35, align 4, !tbaa !39
  %37 = icmp eq i32 %34, %36
  br i1 %37, label %38, label %_ZN6vectorISt4pairIP9func_declS2_ELb0EjE9push_backEOS3_.exit

38:                                               ; preds = %32, %_ZN15ast_translationclI9func_declEEPT_PKS2_.exit19
  tail call void @_ZN6vectorISt4pairIP9func_declS2_ELb0EjE13expand_vectorEv(ptr noundef nonnull align 8 dereferenceable(8) %10)
  %.pre.i = load ptr, ptr %10, align 8, !tbaa !18
  %.phi.trans.insert.i = getelementptr inbounds i8, ptr %.pre.i, i64 -4
  %.pre2.i = load i32, ptr %.phi.trans.insert.i, align 4, !tbaa !39
  br label %_ZN6vectorISt4pairIP9func_declS2_ELb0EjE9push_backEOS3_.exit

_ZN6vectorISt4pairIP9func_declS2_ELb0EjE9push_backEOS3_.exit: ; preds = %32, %38
  %39 = phi i32 [ %.pre2.i, %38 ], [ %34, %32 ]
  %40 = phi ptr [ %.pre.i, %38 ], [ %30, %32 ]
  %41 = zext i32 %39 to i64
  %42 = getelementptr inbounds nuw %"struct.std::pair", ptr %40, i64 %41
  store ptr %.0.i.i1731, ptr %42, align 8
  %.sroa.4.0..sroa_idx = getelementptr inbounds nuw i8, ptr %42, i64 8
  store ptr %.0.i.i18, ptr %.sroa.4.0..sroa_idx, align 8
  %43 = load ptr, ptr %10, align 8, !tbaa !18
  %44 = getelementptr inbounds i8, ptr %43, i64 -4
  %45 = load i32, ptr %44, align 4, !tbaa !39
  %46 = add i32 %45, 1
  store i32 %46, ptr %44, align 4, !tbaa !39
  %.not.i = icmp eq ptr %.0.i.i1731, null
  br i1 %.not.i, label %_ZN11ast_manager7inc_refEP3ast.exit, label %47

47:                                               ; preds = %_ZN6vectorISt4pairIP9func_declS2_ELb0EjE9push_backEOS3_.exit
  %48 = getelementptr inbounds nuw i8, ptr %.0.i.i1731, i64 8
  %49 = load i32, ptr %48, align 4, !tbaa !41
  %50 = add i32 %49, 1
  store i32 %50, ptr %48, align 4, !tbaa !41
  br label %_ZN11ast_manager7inc_refEP3ast.exit

_ZN11ast_manager7inc_refEP3ast.exit:              ; preds = %_ZN6vectorISt4pairIP9func_declS2_ELb0EjE9push_backEOS3_.exit, %47
  %.not.i20 = icmp eq ptr %.0.i.i18, null
  br i1 %.not.i20, label %_ZN11ast_manager7inc_refEP3ast.exit21, label %51

51:                                               ; preds = %_ZN11ast_manager7inc_refEP3ast.exit
  %52 = getelementptr inbounds nuw i8, ptr %.0.i.i18, i64 8
  %53 = load i32, ptr %52, align 4, !tbaa !41
  %54 = add i32 %53, 1
  store i32 %54, ptr %52, align 4, !tbaa !41
  br label %_ZN11ast_manager7inc_refEP3ast.exit21

_ZN11ast_manager7inc_refEP3ast.exit21:            ; preds = %_ZN11ast_manager7inc_refEP3ast.exit, %51
  %55 = getelementptr inbounds nuw i8, ptr %.026, i64 16
  %.not = icmp eq ptr %55, %17
  br i1 %.not, label %._crit_edge, label %.lr.ph
}